; Function Attrs: mustprogress nofree nounwind willreturn memory(read, inaccessiblemem: none) uwtable
define dso_local noundef zeroext i1 @_ZN4Luau17matchSetMetatableERKNS_11AstExprCallE(ptr noundef nonnull readonly align 8 captures(none) dereferenceable(76) %0) local_unnamed_addr #12 {
  %2 = getelementptr inbounds nuw i8, ptr %0, i64 48
  %3 = load i64, ptr %2, align 8, !tbaa !332
  %.not = icmp eq i64 %3, 2
  br i1 %.not, label %4, label %15

4:                                                ; preds = %1
  %5 = getelementptr inbounds nuw i8, ptr %0, i64 32
  %6 = load ptr, ptr %5, align 8, !tbaa !310
  %7 = getelementptr inbounds nuw i8, ptr %6, i64 8
  %8 = load i32, ptr %7, align 8, !tbaa !317
  %9 = load i32, ptr @_ZN4Luau7AstRttiINS_13AstExprGlobalEE5valueE, align 4, !tbaa !4
  %10 = icmp ne i32 %8, %9
  %.not79 = icmp eq ptr %6, null
  %.not7 = or i1 %.not79, %10
  br i1 %.not7, label %15, label %11

11:                                               ; preds = %4
  %12 = getelementptr inbounds nuw i8, ptr %6, i64 32
  %13 = load ptr, ptr %12, align 8, !tbaa !571
  %.not.i = icmp eq ptr %13, null
  br i1 %.not.i, label %_ZNK4Luau7AstNameneEPKc.exit.thread, label %_ZNK4Luau7AstNameneEPKc.exit

_ZNK4Luau7AstNameneEPKc.exit:                     ; preds = %11
  %14 = tail call i32 @strcmp(ptr noundef nonnull dereferenceable(1) %13, ptr noundef nonnull dereferenceable(13) @.str.86) #34
  %.fr = freeze i32 %14
  %.not10 = icmp eq i32 %.fr, 0
  br i1 %.not10, label %15, label %_ZNK4Luau7AstNameneEPKc.exit.thread

_ZNK4Luau7AstNameneEPKc.exit.thread:              ; preds = %11, %_ZNK4Luau7AstNameneEPKc.exit
  br label %15

15:                                               ; preds = %_ZNK4Luau7AstNameneEPKc.exit.thread, %_ZNK4Luau7AstNameneEPKc.exit, %4, %1
  %.0 = phi i1 [ false, %1 ], [ false, %4 ], [ false, %_ZNK4Luau7AstNameneEPKc.exit.thread ], [ true, %_ZNK4Luau7AstNameneEPKc.exit ]
  ret i1 %.0
}